target datalayout = "e-m:e-p270:32:32-p271:32:32-p272:64:64-i64:64-i128:128-f80:128-n8:16:32:64-S128"
target triple = "x86_64-pc-linux-gnu"

%struct.Vec_Int_t_ = type { i32, i32, ptr }
%struct.Vec_Wrd_t_ = type { i32, i32, ptr }

; Function Attrs: inlinehint nounwind uwtable
define internal void @Vec_IntWriteEntry(ptr noundef %0, i32 noundef %1, i32 noundef %2) #3 {
  %4 = alloca ptr, align 8
  %5 = alloca i32, align 4
  %6 = alloca i32, align 4
  store ptr %0, ptr %4, align 8, !tbaa !19
  store i32 %1, ptr %5, align 4, !tbaa !8
  store i32 %2, ptr %6, align 4, !tbaa !8
  %7 = load i32, ptr %6, align 4, !tbaa !8
  %8 = load ptr, ptr %4, align 8, !tbaa !19
  %9 = getelementptr inbounds nuw %struct.Vec_Int_t_, ptr %8, i32 0, i32 2
  %10 = load ptr, ptr %9, align 8, !tbaa !29
  %11 = load i32, ptr %5, align 4, !tbaa !8
  %12 = sext i32 %11 to i64
  %13 = getelementptr inbounds i32, ptr %10, i64 %12
  store i32 %7, ptr %13, align 4, !tbaa !8
  ret void
}

; Function Attrs: inlinehint nounwind uwtable
define internal i32 @Vec_IntEntry(ptr noundef %0, i32 noundef %1) #3 {
  %3 = alloca ptr, align 8
  %4 = alloca i32, align 4
  store ptr %0, ptr %3, align 8, !tbaa !19
  store i32 %1, ptr %4, align 4, !tbaa !8
  %5 = load ptr, ptr %3, align 8, !tbaa !19
  %6 = getelementptr inbounds nuw %struct.Vec_Int_t_, ptr %5, i32 0, i32 2
  %7 = load ptr, ptr %6, align 8, !tbaa !29
  %8 = load i32, ptr %4, align 4, !tbaa !8
  %9 = sext i32 %8 to i64
  %10 = getelementptr inbounds i32, ptr %7, i64 %9
  %11 = load i32, ptr %10, align 4, !tbaa !8
  ret i32 %11
}

; Function Attrs: inlinehint nounwind uwtable
define internal i32 @Vec_IntSize(ptr noundef %0) #3 {
  %2 = alloca ptr, align 8
  store ptr %0, ptr %2, align 8, !tbaa !19
  %3 = load ptr, ptr %2, align 8, !tbaa !19
  %4 = getelementptr inbounds nuw %struct.Vec_Int_t_, ptr %3, i32 0, i32 1
  %5 = load i32, ptr %4, align 4, !tbaa !26
  ret i32 %5
}

; Function Attrs: inlinehint nounwind uwtable
define internal void @Abc_TtSetBit(ptr noundef %0, i32 noundef %1) #3 {
  %3 = alloca ptr, align 8
  %4 = alloca i32, align 4
  store ptr %0, ptr %3, align 8, !tbaa !3
  store i32 %1, ptr %4, align 4, !tbaa !8
  %5 = load i32, ptr %4, align 4, !tbaa !8
  %6 = and i32 %5, 63
  %7 = zext i32 %6 to i64
  %8 = shl i64 1, %7
  %9 = load ptr, ptr %3, align 8, !tbaa !3
  %10 = load i32, ptr %4, align 4, !tbaa !8
  %11 = ashr i32 %10, 6
  %12 = sext i32 %11 to i64
  %13 = getelementptr inbounds i64, ptr %9, i64 %12
  %14 = load i64, ptr %13, align 8, !tbaa !13
  %15 = or i64 %14, %8
  store i64 %15, ptr %13, align 8, !tbaa !13
  ret void
}

; Function Attrs: inlinehint nounwind uwtable
define internal void @Vec_IntClear(ptr noundef %0) #3 {
  %2 = alloca ptr, align 8
  store ptr %0, ptr %2, align 8, !tbaa !19
  %3 = load ptr, ptr %2, align 8, !tbaa !19
  %4 = getelementptr inbounds nuw %struct.Vec_Int_t_, ptr %3, i32 0, i32 1
  store i32 0, ptr %4, align 4, !tbaa !26
  ret void
}

; Function Attrs: inlinehint nounwind uwtable
define internal void @Vec_WrdClear(ptr noundef %0) #3 {
  %2 = alloca ptr, align 8
  store ptr %0, ptr %2, align 8, !tbaa !37
  %3 = load ptr, ptr %2, align 8, !tbaa !37
  %4 = getelementptr inbounds nuw %struct.Vec_Wrd_t_, ptr %3, i32 0, i32 1
  store i32 0, ptr %4, align 4, !tbaa !42
  ret void
}

; Function Attrs: inlinehint nounwind uwtable
define internal i32 @Abc_TtWordNum(i32 noundef %0) #3 {
  %2 = alloca i32, align 4
  store i32 %0, ptr %2, align 4, !tbaa !8
  %3 = load i32, ptr %2, align 4, !tbaa !8
  %4 = icmp sle i32 %3, 6
  br i1 %4, label %5, label %6

5:                                                ; preds = %1
  br label %10

6:                                                ; preds = %1
  %7 = load i32, ptr %2, align 4, !tbaa !8
  %8 = sub nsw i32 %7, 6
  %9 = shl i32 1, %8
  br label %10

10:                                               ; preds = %6, %5
  %11 = phi i32 [ 1, %5 ], [ %9, %6 ]
  ret i32 %11
}

; Function Attrs: nounwind uwtable
define i32 @Abc_TtGetCM6Pat(ptr noundef %0, i32 noundef %1, i32 noundef %2, ptr noundef %3, ptr noundef %4, ptr noundef %5, ptr noundef %6) #0 {
  %8 = alloca ptr, align 8
  %9 = alloca i32, align 4
  %10 = alloca i32, align 4
  %11 = alloca ptr, align 8
  %12 = alloca ptr, align 8
  %13 = alloca ptr, align 8
  %14 = alloca ptr, align 8
  %15 = alloca i32, align 4
  %16 = alloca i32, align 4
  %17 = alloca i32, align 4
  %18 = alloca i32, align 4
  %19 = alloca i32, align 4
  store ptr %0, ptr %8, align 8, !tbaa !3
  store i32 %1, ptr %9, align 4, !tbaa !8
  store i32 %2, ptr %10, align 4, !tbaa !8
  store ptr %3, ptr %11, align 8, !tbaa !19
  store ptr %4, ptr %12, align 8, !tbaa !37
  store ptr %5, ptr %13, align 8, !tbaa !19
  store ptr %6, ptr %14, align 8, !tbaa !3
  call void @llvm.lifetime.start.p0(i64 4, ptr %15) #12
  call void @llvm.lifetime.start.p0(i64 4, ptr %16) #12
  call void @llvm.lifetime.start.p0(i64 4, ptr %17) #12
  %20 = load i32, ptr %9, align 4, !tbaa !8
  %21 = load i32, ptr %10, align 4, !tbaa !8
  %22 = sub nsw i32 %20, %21
  %23 = shl i32 1, %22
  store i32 %23, ptr %17, align 4, !tbaa !8
  call void @llvm.lifetime.start.p0(i64 4, ptr %18) #12
  %24 = load i32, ptr %10, align 4, !tbaa !8
  %25 = sub nsw i32 %24, 6
  %26 = shl i32 1, %25
  store i32 %26, ptr %18, align 4, !tbaa !8
  call void @llvm.lifetime.start.p0(i64 4, ptr %19) #12
  %27 = load i32, ptr %9, align 4, !tbaa !8
  %28 = load i32, ptr %10, align 4, !tbaa !8
  %29 = sub nsw i32 %27, %28
  %30 = call i32 @Abc_TtWordNum(i32 noundef %29)
  store i32 %30, ptr %19, align 4, !tbaa !8
  %31 = load ptr, ptr %12, align 8, !tbaa !37
  call void @Vec_WrdClear(ptr noundef %31)
  %32 = load ptr, ptr %13, align 8, !tbaa !19
  call void @Vec_IntClear(ptr noundef %32)
  %33 = load ptr, ptr %14, align 8, !tbaa !3
  %34 = icmp ne ptr %33, null
  br i1 %34, label %35, label %62

35:                                               ; preds = %7
  store i32 0, ptr %15, align 4, !tbaa !8
  br label %36

36:                                               ; preds = %58, %35
  %37 = load i32, ptr %15, align 4, !tbaa !8
  %38 = load i32, ptr %17, align 4, !tbaa !8
  %39 = icmp slt i32 %37, %38
  br i1 %39, label %40, label %61

40:                                               ; preds = %36
  %41 = load ptr, ptr %14, align 8, !tbaa !3
  %42 = load i32, ptr %19, align 4, !tbaa !8
  %43 = load ptr, ptr %8, align 8, !tbaa !3
  %44 = load i32, ptr %15, align 4, !tbaa !8
  %45 = load i32, ptr %18, align 4, !tbaa !8
  %46 = mul nsw i32 %44, %45
  %47 = sext i32 %46 to i64
  %48 = getelementptr inbounds i64, ptr %43, i64 %47
  %49 = load i32, ptr %18, align 4, !tbaa !8
  %50 = load ptr, ptr %11, align 8, !tbaa !19
  %51 = load ptr, ptr %12, align 8, !tbaa !37
  %52 = load ptr, ptr %13, align 8, !tbaa !19
  %53 = call i32 @Abc_TtHashLookup6(ptr noundef %48, i32 noundef %49, ptr noundef %50, ptr noundef %51, ptr noundef %52)
  %54 = mul nsw i32 %42, %53
  %55 = sext i32 %54 to i64
  %56 = getelementptr inbounds i64, ptr %41, i64 %55
  %57 = load i32, ptr %15, align 4, !tbaa !8
  call void @Abc_TtSetBit(ptr noundef %56, i32 noundef %57)
  br label %58

58:                                               ; preds = %40
  %59 = load i32, ptr %15, align 4, !tbaa !8
  %60 = add nsw i32 %59, 1
  store i32 %60, ptr %15, align 4, !tbaa !8
  br label %36, !llvm.loop !59

61:                                               ; preds = %36
  br label %83

62:                                               ; preds = %7
  store i32 0, ptr %15, align 4, !tbaa !8
  br label %63

63:                                               ; preds = %79, %62
  %64 = load i32, ptr %15, align 4, !tbaa !8
  %65 = load i32, ptr %17, align 4, !tbaa !8
  %66 = icmp slt i32 %64, %65
  br i1 %66, label %67, label %82

67:                                               ; preds = %63
  %68 = load ptr, ptr %8, align 8, !tbaa !3
  %69 = load i32, ptr %15, align 4, !tbaa !8
  %70 = load i32, ptr %18, align 4, !tbaa !8
  %71 = mul nsw i32 %69, %70
  %72 = sext i32 %71 to i64
  %73 = getelementptr inbounds i64, ptr %68, i64 %72
  %74 = load i32, ptr %18, align 4, !tbaa !8
  %75 = load ptr, ptr %11, align 8, !tbaa !19
  %76 = load ptr, ptr %12, align 8, !tbaa !37
  %77 = load ptr, ptr %13, align 8, !tbaa !19
  %78 = call i32 @Abc_TtHashLookup6(ptr noundef %73, i32 noundef %74, ptr noundef %75, ptr noundef %76, ptr noundef %77)
  br label %79

79:                                               ; preds = %67
  %80 = load i32, ptr %15, align 4, !tbaa !8
  %81 = add nsw i32 %80, 1
  store i32 %81, ptr %15, align 4, !tbaa !8
  br label %63, !llvm.loop !60

82:                                               ; preds = %63
  br label %83

83:                                               ; preds = %82, %61
  store i32 0, ptr %15, align 4, !tbaa !8
  br label %84

84:                                               ; preds = %98, %83
  %85 = load i32, ptr %15, align 4, !tbaa !8
  %86 = load ptr, ptr %13, align 8, !tbaa !19
  %87 = call i32 @Vec_IntSize(ptr noundef %86)
  %88 = icmp slt i32 %85, %87
  br i1 %88, label %89, label %93

89:                                               ; preds = %84
  %90 = load ptr, ptr %13, align 8, !tbaa !19
  %91 = load i32, ptr %15, align 4, !tbaa !8
  %92 = call i32 @Vec_IntEntry(ptr noundef %90, i32 noundef %91)
  store i32 %92, ptr %16, align 4, !tbaa !8
  br label %93

93:                                               ; preds = %89, %84
  %94 = phi i1 [ false, %84 ], [ true, %89 ]
  br i1 %94, label %95, label %101

95:                                               ; preds = %93
  %96 = load ptr, ptr %11, align 8, !tbaa !19
  %97 = load i32, ptr %16, align 4, !tbaa !8
  call void @Vec_IntWriteEntry(ptr noundef %96, i32 noundef %97, i32 noundef -1)
  br label %98

98:                                               ; preds = %95
  %99 = load i32, ptr %15, align 4, !tbaa !8
  %100 = add nsw i32 %99, 1
  store i32 %100, ptr %15, align 4, !tbaa !8
  br label %84, !llvm.loop !61

101:                                              ; preds = %93
  %102 = load ptr, ptr %13, align 8, !tbaa !19
  %103 = call i32 @Vec_IntSize(ptr noundef %102)
  call void @llvm.lifetime.end.p0(i64 4, ptr %19) #12
  call void @llvm.lifetime.end.p0(i64 4, ptr %18) #12
  call void @llvm.lifetime.end.p0(i64 4, ptr %17) #12
  call void @llvm.lifetime.end.p0(i64 4, ptr %16) #12
  call void @llvm.lifetime.end.p0(i64 4, ptr %15) #12
  ret i32 %103
}