; Function Attrs: nounwind uwtable
define i32 @Abc_TtGetCM6Pat(ptr noundef readonly captures(none) %0, i32 noundef %1, i32 noundef %2, ptr noundef readonly captures(none) %3, ptr noundef captures(none) initializes((4, 8)) %4, ptr noundef captures(none) initializes((4, 8)) %5, ptr noundef %6) local_unnamed_addr #3 {
  %8 = sub nsw i32 %1, %2
  %9 = shl nuw i32 1, %8
  %10 = add nsw i32 %2, -6
  %11 = shl nuw i32 1, %10
  %12 = getelementptr inbounds nuw i8, ptr %4, i64 4
  store i32 0, ptr %12, align 4, !tbaa !32
  %13 = getelementptr inbounds nuw i8, ptr %5, i64 4
  store i32 0, ptr %13, align 4, !tbaa !14
  %.not = icmp eq ptr %6, null
  %.not51 = icmp eq i32 %8, 31
  br i1 %.not, label %.preheader, label %.preheader42

.preheader42:                                     ; preds = %7
  br i1 %.not51, label %.critedge, label %.lr.ph

.lr.ph:                                           ; preds = %.preheader42
  %14 = tail call i32 @llvm.smax.i32(i32 %8, i32 6)
  %15 = add nsw i32 %14, -6
  %smax = tail call i32 @llvm.smax.i32(i32 %9, i32 1)
  br label %16

.preheader:                                       ; preds = %7
  br i1 %.not51, label %.critedge, label %.lr.ph46.preheader

.lr.ph46.preheader:                               ; preds = %.preheader
  %smax54 = tail call i32 @llvm.smax.i32(i32 %9, i32 1)
  br label %.lr.ph46

16:                                               ; preds = %.lr.ph, %16
  %.044 = phi i32 [ 0, %.lr.ph ], [ %32, %16 ]
  %17 = shl i32 %.044, %10
  %18 = sext i32 %17 to i64
  %19 = getelementptr inbounds i64, ptr %0, i64 %18
  %20 = tail call i32 @Abc_TtHashLookup6(ptr noundef %19, i32 noundef %11, ptr noundef %3, ptr noundef %4, ptr noundef %5)
  %21 = shl i32 %20, %15
  %22 = sext i32 %21 to i64
  %23 = getelementptr inbounds i64, ptr %6, i64 %22
  %24 = and i32 %.044, 63
  %25 = zext nneg i32 %24 to i64
  %26 = shl nuw i64 1, %25
  %27 = lshr i32 %.044, 6
  %28 = zext nneg i32 %27 to i64
  %29 = getelementptr inbounds nuw i64, ptr %23, i64 %28
  %30 = load i64, ptr %29, align 8, !tbaa !3
  %31 = or i64 %30, %26
  store i64 %31, ptr %29, align 8, !tbaa !3
  %32 = add nuw nsw i32 %.044, 1
  %exitcond.not = icmp eq i32 %32, %smax
  br i1 %exitcond.not, label %.loopexit, label %16, !llvm.loop !49

.lr.ph46:                                         ; preds = %.lr.ph46.preheader, %.lr.ph46
  %.145 = phi i32 [ %37, %.lr.ph46 ], [ 0, %.lr.ph46.preheader ]
  %33 = shl i32 %.145, %10
  %34 = sext i32 %33 to i64
  %35 = getelementptr inbounds i64, ptr %0, i64 %34
  %36 = tail call i32 @Abc_TtHashLookup6(ptr noundef %35, i32 noundef %11, ptr noundef %3, ptr noundef %4, ptr noundef %5)
  %37 = add nuw nsw i32 %.145, 1
  %exitcond55.not = icmp eq i32 %37, %smax54
  br i1 %exitcond55.not, label %.loopexit, label %.lr.ph46, !llvm.loop !50

.loopexit:                                        ; preds = %16, %.lr.ph46
  %.val3947.pr = load i32, ptr %13, align 4, !tbaa !14
  %38 = icmp sgt i32 %.val3947.pr, 0
  br i1 %38, label %.lr.ph49, label %.critedge

.lr.ph49:                                         ; preds = %.loopexit
  %39 = getelementptr i8, ptr %5, i64 8
  %.val40 = load ptr, ptr %39, align 8, !tbaa !18
  %40 = getelementptr i8, ptr %3, i64 8
  %.val41 = load ptr, ptr %40, align 8, !tbaa !18
  br label %41

41:                                               ; preds = %.lr.ph49, %41
  %indvars.iv = phi i64 [ 0, %.lr.ph49 ], [ %indvars.iv.next, %41 ]
  %42 = getelementptr inbounds nuw i32, ptr %.val40, i64 %indvars.iv
  %43 = load i32, ptr %42, align 4, !tbaa !7
  %44 = sext i32 %43 to i64
  %45 = getelementptr inbounds i32, ptr %.val41, i64 %44
  store i32 -1, ptr %45, align 4, !tbaa !7
  %indvars.iv.next = add nuw nsw i64 %indvars.iv, 1
  %.val39 = load i32, ptr %13, align 4, !tbaa !14
  %46 = sext i32 %.val39 to i64
  %47 = icmp slt i64 %indvars.iv.next, %46
  br i1 %47, label %41, label %.critedge, !llvm.loop !51

.critedge:                                        ; preds = %41, %.preheader, %.preheader42, %.loopexit
  %.val39.lcssa = phi i32 [ %.val3947.pr, %.loopexit ], [ 0, %.preheader42 ], [ 0, %.preheader ], [ %.val39, %41 ]
  ret i32 %.val39.lcssa
}